target datalayout = "e-m:e-p270:32:32-p271:32:32-p272:64:64-i64:64-i128:128-f80:128-n8:16:32:64-S128"
target triple = "x86_64-unknown-linux-gnu"

%"union.std::aligned_storage<8, 8>::type" = type { [8 x i8] }
%"class.std::__shared_count" = type { ptr }
%"struct.arrow::(anonymous namespace)::ArrayExporter" = type { %"struct.arrow::(anonymous namespace)::ExportedArrayPrivateData", %"class.std::unique_ptr.60", %"class.std::vector.68" }
%"struct.arrow::(anonymous namespace)::ExportedArrayPrivateData" = type { %"class.arrow::internal::StaticVectorImpl.42", %struct.ArrowArray, %"class.arrow::internal::StaticVectorImpl.45", %"class.arrow::internal::StaticVectorImpl.49", %"class.std::shared_ptr.38", %"class.std::shared_ptr.52", %"class.std::vector.55" }
%"class.arrow::internal::StaticVectorImpl.42" = type { %"struct.arrow::internal::SmallVectorStorage.43" }
%"struct.arrow::internal::SmallVectorStorage.43" = type { [3 x %"class.arrow::internal::AlignedStorage.44"], i64, ptr, i64 }
%"class.arrow::internal::AlignedStorage.44" = type { %"union.std::aligned_storage<8, 8>::type" }
%struct.ArrowArray = type { i64, i64, i64, i64, i64, ptr, ptr, ptr, ptr, ptr }
%"class.arrow::internal::StaticVectorImpl.45" = type { %"struct.arrow::internal::SmallVectorStorage.46" }
%"struct.arrow::internal::SmallVectorStorage.46" = type { [1 x %"class.arrow::internal::AlignedStorage.47"], i64, ptr, i64 }
%"class.arrow::internal::AlignedStorage.47" = type { %"union.std::aligned_storage<80, 8>::type" }
%"union.std::aligned_storage<80, 8>::type" = type { [80 x i8] }
%"class.arrow::internal::StaticVectorImpl.49" = type { %"struct.arrow::internal::SmallVectorStorage.50" }
%"struct.arrow::internal::SmallVectorStorage.50" = type { [4 x %"class.arrow::internal::AlignedStorage.51"], i64, ptr, i64 }
%"class.arrow::internal::AlignedStorage.51" = type { %"union.std::aligned_storage<8, 8>::type" }
%"class.std::shared_ptr.38" = type { %"class.std::__shared_ptr.39" }
%"class.std::__shared_ptr.39" = type { ptr, %"class.std::__shared_count" }
%"class.std::shared_ptr.52" = type { %"class.std::__shared_ptr.53" }
%"class.std::__shared_ptr.53" = type { ptr, %"class.std::__shared_count" }
%"class.std::vector.55" = type { %"struct.std::_Vector_base.56" }
%"struct.std::_Vector_base.56" = type { %"struct.std::_Vector_base<long, std::allocator<long>>::_Vector_impl" }
%"struct.std::_Vector_base<long, std::allocator<long>>::_Vector_impl" = type { %"struct.std::_Vector_base<long, std::allocator<long>>::_Vector_impl_data" }
%"struct.std::_Vector_base<long, std::allocator<long>>::_Vector_impl_data" = type { ptr, ptr, ptr }
%"class.std::unique_ptr.60" = type { %"struct.std::__uniq_ptr_data.61" }
%"struct.std::__uniq_ptr_data.61" = type { %"class.std::__uniq_ptr_impl.62" }
%"class.std::__uniq_ptr_impl.62" = type { %"class.std::tuple.63" }
%"class.std::tuple.63" = type { %"struct.std::_Tuple_impl.64" }
%"struct.std::_Tuple_impl.64" = type { %"struct.std::_Head_base.67" }
%"struct.std::_Head_base.67" = type { ptr }
%"class.std::vector.68" = type { %"struct.std::_Vector_base.69" }
%"struct.std::_Vector_base.69" = type { %"struct.std::_Vector_base<arrow::(anonymous namespace)::ArrayExporter, std::allocator<arrow::(anonymous namespace)::ArrayExporter>>::_Vector_impl" }
%"struct.std::_Vector_base<arrow::(anonymous namespace)::ArrayExporter, std::allocator<arrow::(anonymous namespace)::ArrayExporter>>::_Vector_impl" = type { %"struct.std::_Vector_base<arrow::(anonymous namespace)::ArrayExporter, std::allocator<arrow::(anonymous namespace)::ArrayExporter>>::_Vector_impl_data" }
%"struct.std::_Vector_base<arrow::(anonymous namespace)::ArrayExporter, std::allocator<arrow::(anonymous namespace)::ArrayExporter>>::_Vector_impl_data" = type { ptr, ptr, ptr }

; Function Attrs: mustprogress nounwind uwtable
define internal void @_ZSt8_DestroyIN5arrow12_GLOBAL__N_113ArrayExporterEEvPT_(ptr noundef %__pointer) #1 {
entry:
  %__pointer.addr = alloca ptr, align 8
  store ptr %__pointer, ptr %__pointer.addr, align 8
  %0 = load ptr, ptr %__pointer.addr, align 8
  call void @_ZN5arrow12_GLOBAL__N_113ArrayExporterD2Ev(ptr noundef nonnull align 8 dereferenceable(376) %0) #12
  ret void
}

; Function Attrs: mustprogress uwtable
define internal void @_ZNSt12_Destroy_auxILb0EE9__destroyIPN5arrow12_GLOBAL__N_113ArrayExporterEEEvT_S6_(ptr noundef %__first, ptr noundef %__last) #0 align 2 {
entry:
  %__first.addr = alloca ptr, align 8
  %__last.addr = alloca ptr, align 8
  store ptr %__first, ptr %__first.addr, align 8
  store ptr %__last, ptr %__last.addr, align 8
  br label %for.cond

for.cond:                                         ; preds = %for.inc, %entry
  %0 = load ptr, ptr %__first.addr, align 8
  %1 = load ptr, ptr %__last.addr, align 8
  %cmp = icmp ne ptr %0, %1
  br i1 %cmp, label %for.body, label %for.end

for.body:                                         ; preds = %for.cond
  %2 = load ptr, ptr %__first.addr, align 8
  call void @_ZSt8_DestroyIN5arrow12_GLOBAL__N_113ArrayExporterEEvPT_(ptr noundef %2)
  br label %for.inc

for.inc:                                          ; preds = %for.body
  %3 = load ptr, ptr %__first.addr, align 8
  %incdec.ptr = getelementptr inbounds %"struct.arrow::(anonymous namespace)::ArrayExporter", ptr %3, i32 1
  store ptr %incdec.ptr, ptr %__first.addr, align 8
  br label %for.cond, !llvm.loop !70

for.end:                                          ; preds = %for.cond
  ret void
}